; Function Attrs: mustprogress nounwind uwtable
define hidden void @_ZN24SafePointScalarMergeNodeC2EPK10TypeOopPtri(ptr noundef nonnull align 8 dereferenceable(68) %0, ptr noundef %1, i32 noundef %2) unnamed_addr #2 align 2 {
  tail call void @_ZN4NodeC2Ej(ptr noundef nonnull align 8 dereferenceable(52) %0, i32 noundef 1) #15
  %4 = getelementptr inbounds i8, ptr %0, i64 56
  store ptr %1, ptr %4, align 8
  %5 = getelementptr inbounds i8, ptr %0, i64 44
  store ptr getelementptr inbounds inrange(-16, 192) (i8, ptr @_ZTV24SafePointScalarMergeNode, i64 16), ptr %0, align 8
  %6 = getelementptr inbounds i8, ptr %0, i64 64
  store i32 %2, ptr %6, align 8
  store i32 4100, ptr %5, align 4
  ret void
}